; ModuleID = 'source-C-CXX/27/1874.c'
source_filename = "source-C-CXX/27/1874.c"
target datalayout = "e-m:e-p270:32:32-p271:32:32-p272:64:64-i64:64-f80:128-n8:16:32:64-S128"
target triple = "x86_64-pc-linux-gnu"

@.str = private unnamed_addr constant [4 x i8] c"%d,\00", align 1
@.str.1 = private unnamed_addr constant [3 x i8] c"%d\00", align 1

; Function Attrs: nounwind sspstrong uwtable
define dso_local i32 @main() local_unnamed_addr #0 {
  %1 = alloca [10000 x i8], align 16
  %2 = getelementptr inbounds [10000 x i8], [10000 x i8]* %1, i64 0, i64 0
  call void @llvm.lifetime.start.p0i8(i64 10000, i8* nonnull %2) #5
  %3 = call i32 (i8*, ...) bitcast (i32 (...)* @gets to i32 (i8*, ...)*)(i8* nonnull %2) #5
  %4 = call i64 @strlen(i8* noundef nonnull %2) #6
  %5 = icmp eq i64 %4, -1
  br i1 %5, label %32, label %6

6:                                                ; preds = %0, %27
  %7 = phi i64 [ %28, %27 ], [ 0, %0 ]
  %8 = phi i32 [ %23, %27 ], [ 0, %0 ]
  %9 = getelementptr inbounds [10000 x i8], [10000 x i8]* %1, i64 0, i64 %7
  %10 = load i8, i8* %9, align 1, !tbaa !5
  switch i8 %10, label %11 [
    i8 32, label %13
    i8 0, label %13
  ]

11:                                               ; preds = %6
  %12 = add nsw i32 %8, 1
  br label %13

13:                                               ; preds = %6, %6, %11
  %14 = phi i32 [ %12, %11 ], [ %8, %6 ], [ %8, %6 ]
  %15 = icmp eq i8 %10, 32
  %16 = icmp ne i32 %14, 0
  %17 = select i1 %15, i1 %16, i1 false
  br i1 %17, label %18, label %21

18:                                               ; preds = %13
  %19 = call i32 (i8*, ...) @printf(i8* nonnull dereferenceable(1) getelementptr inbounds ([4 x i8], [4 x i8]* @.str, i64 0, i64 0), i32 %14)
  %20 = load i8, i8* %9, align 1, !tbaa !5
  br label %21

21:                                               ; preds = %18, %13
  %22 = phi i8 [ %20, %18 ], [ %10, %13 ]
  %23 = phi i32 [ 0, %18 ], [ %14, %13 ]
  %24 = icmp eq i8 %22, 0
  br i1 %24, label %25, label %27

25:                                               ; preds = %21
  %26 = call i32 (i8*, ...) @printf(i8* nonnull dereferenceable(1) getelementptr inbounds ([3 x i8], [3 x i8]* @.str.1, i64 0, i64 0), i32 %23)
  br label %27

27:                                               ; preds = %21, %25
  %28 = add nuw i64 %7, 1
  %29 = call i64 @strlen(i8* noundef nonnull %2) #6
  %30 = add i64 %29, 1
  %31 = icmp ugt i64 %30, %28
  br i1 %31, label %6, label %32, !llvm.loop !8

32:                                               ; preds = %27, %0
  call void @llvm.lifetime.end.p0i8(i64 10000, i8* nonnull %2) #5
  ret i32 0
}

; Function Attrs: argmemonly mustprogress nofree nosync nounwind willreturn
declare void @llvm.lifetime.start.p0i8(i64 immarg, i8* nocapture) #1

declare i32 @gets(...) local_unnamed_addr #2

; Function Attrs: argmemonly mustprogress nofree nounwind readonly willreturn
declare i64 @strlen(i8* nocapture) local_unnamed_addr #3

; Function Attrs: nofree nounwind
declare noundef i32 @printf(i8* nocapture noundef readonly, ...) local_unnamed_addr #4

; Function Attrs: argmemonly mustprogress nofree nosync nounwind willreturn
declare void @llvm.lifetime.end.p0i8(i64 immarg, i8* nocapture) #1


!llvm.module.flags = !{!0, !1, !2, !3}
!llvm.ident = !{!4}

!0 = !{i32 1, !"wchar_size", i32 4}
!1 = !{i32 7, !"PIC Level", i32 2}
!2 = !{i32 7, !"PIE Level", i32 2}
!3 = !{i32 7, !"uwtable", i32 1}
!4 = !{!"clang version 13.0.0"}
!5 = !{!6, !6, i64 0}
!6 = !{!"omnipotent char", !7, i64 0}
!7 = !{!"Simple C/C++ TBAA"}
!8 = distinct !{!8, !9}
!9 = !{!"llvm.loop.mustprogress"}
